; Function Attrs: mustprogress uwtable
define hidden void @_ZN4cvc58internal6theory5arith5mkOneERKNS0_8TypeNodeEb(ptr dead_on_unwind noalias writable sret(%"class.cvc5::internal::NodeTemplate") align 8 %0, ptr noundef nonnull align 8 dereferenceable(8) %1, i1 noundef zeroext %2) local_unnamed_addr #4 personality ptr @__gxx_personality_v0 {
  %4 = alloca %"class.cvc5::internal::Rational", align 8
  %5 = tail call noundef ptr @_ZN4cvc58internal11NodeManager9currentNMEv()
  call void @llvm.lifetime.start.p0(i64 32, ptr nonnull %4) #23
  %6 = select i1 %2, i32 -1, i32 1
  call void @_ZN4cvc58internal8RationalC2Ei(ptr noundef nonnull align 8 dereferenceable(32) %4, i32 noundef %6)
  invoke void @_ZN4cvc58internal11NodeManager16mkConstRealOrIntERKNS0_8TypeNodeERKNS0_8RationalE(ptr dead_on_unwind writable sret(%"class.cvc5::internal::NodeTemplate") align 8 %0, ptr noundef nonnull align 8 dereferenceable(3560) %5, ptr noundef nonnull align 8 dereferenceable(8) %1, ptr noundef nonnull align 8 dereferenceable(32) %4)
          to label %7 unwind label %11

7:                                                ; preds = %3
  invoke void @__gmpq_clear(ptr noundef nonnull align 8 dereferenceable(32) %4)
          to label %_ZN4cvc58internal8RationalD2Ev.exit unwind label %8

8:                                                ; preds = %7
  %9 = landingpad { ptr, i32 }
          catch ptr null
  %10 = extractvalue { ptr, i32 } %9, 0
  call void @__clang_call_terminate(ptr %10) #24
  unreachable

_ZN4cvc58internal8RationalD2Ev.exit:              ; preds = %7
  call void @llvm.lifetime.end.p0(i64 32, ptr nonnull %4) #23
  ret void

11:                                               ; preds = %3
  %12 = landingpad { ptr, i32 }
          cleanup
  invoke void @__gmpq_clear(ptr noundef nonnull align 8 dereferenceable(32) %4)
          to label %_ZN4cvc58internal8RationalD2Ev.exit3 unwind label %13

13:                                               ; preds = %11
  %14 = landingpad { ptr, i32 }
          catch ptr null
  %15 = extractvalue { ptr, i32 } %14, 0
  call void @__clang_call_terminate(ptr %15) #24
  unreachable

_ZN4cvc58internal8RationalD2Ev.exit3:             ; preds = %11
  call void @llvm.lifetime.end.p0(i64 32, ptr nonnull %4) #23
  resume { ptr, i32 } %12
}